; Function Attrs: nounwind uwtable
define range(i32 -1, 2147483647) i32 @X509_NAME_get_index_by_OBJ(ptr noundef readonly captures(address_is_null) %0, ptr noundef %1, i32 noundef %2) local_unnamed_addr #0 {
  %4 = icmp eq ptr %0, null
  br i1 %4, label %.loopexit, label %5

5:                                                ; preds = %3
  %spec.store.select = tail call i32 @llvm.smax.i32(i32 %2, i32 -1)
  %6 = load ptr, ptr %0, align 8, !tbaa !3
  %7 = tail call i32 @OPENSSL_sk_num(ptr noundef %6) #6
  br label %8

8:                                                ; preds = %10, %5
  %.013.in = phi i32 [ %spec.store.select, %5 ], [ %.013, %10 ]
  %.013 = add nsw i32 %.013.in, 1
  %9 = icmp slt i32 %.013, %7
  br i1 %9, label %10, label %.loopexit

10:                                               ; preds = %8
  %11 = tail call ptr @OPENSSL_sk_value(ptr noundef %6, i32 noundef %.013) #6
  %12 = load ptr, ptr %11, align 8, !tbaa !12
  %13 = tail call i32 @OBJ_cmp(ptr noundef %12, ptr noundef %1) #6
  %14 = icmp eq i32 %13, 0
  br i1 %14, label %.loopexit, label %8, !llvm.loop !16

.loopexit:                                        ; preds = %8, %10, %3
  %.0 = phi i32 [ -1, %3 ], [ -1, %8 ], [ %.013, %10 ]
  ret i32 %.0
}